; Function Attrs: mustprogress uwtable
define hidden void @_ZN12mpfx_manager6to_mpzERK4mpfxR11mpz_managerILb0EER3mpz(ptr noundef nonnull readonly align 8 captures(none) dereferenceable(85) %0, ptr noundef nonnull readonly align 4 captures(none) dereferenceable(4) %1, ptr noundef nonnull align 8 dereferenceable(600) %2, ptr noundef nonnull align 8 dereferenceable(16) %3) local_unnamed_addr #3 align 2 {
  %5 = getelementptr inbounds nuw i8, ptr %0, i64 16
  %6 = load ptr, ptr %5, align 8, !tbaa !3
  %7 = load i32, ptr %1, align 4
  %8 = lshr i32 %7, 1
  %9 = getelementptr inbounds nuw i8, ptr %0, i64 8
  %10 = load i32, ptr %9, align 8, !tbaa !19
  %11 = mul i32 %8, %10
  %12 = zext i32 %11 to i64
  %13 = getelementptr inbounds nuw i32, ptr %6, i64 %12
  %14 = load i32, ptr %0, align 8, !tbaa !13
  %15 = getelementptr inbounds nuw i8, ptr %0, i64 4
  %16 = load i32, ptr %15, align 4, !tbaa !18
  %17 = zext i32 %16 to i64
  %18 = getelementptr inbounds nuw i32, ptr %13, i64 %17
  tail call void @_ZN11mpz_managerILb0EE10set_digitsER3mpzjPKj(ptr noundef nonnull align 8 dereferenceable(600) %2, ptr noundef nonnull align 8 dereferenceable(16) %3, i32 noundef %14, ptr noundef %18)
  %19 = load i32, ptr %1, align 4
  %20 = and i32 %19, 1
  %.not.i = icmp eq i32 %20, 0
  br i1 %.not.i, label %_ZN12mpfx_manager11to_mpz_coreILb0EEEvRK4mpfxR11mpz_managerIXT_EER3mpz.exit, label %21

21:                                               ; preds = %4
  tail call void @_ZN11mpz_managerILb0EE3negER3mpz(ptr noundef nonnull align 8 dereferenceable(600) %2, ptr noundef nonnull align 8 dereferenceable(16) %3)
  br label %_ZN12mpfx_manager11to_mpz_coreILb0EEEvRK4mpfxR11mpz_managerIXT_EER3mpz.exit

_ZN12mpfx_manager11to_mpz_coreILb0EEEvRK4mpfxR11mpz_managerIXT_EER3mpz.exit: ; preds = %4, %21
  ret void
}